target datalayout = "e-m:e-p270:32:32-p271:32:32-p272:64:64-i64:64-i128:128-f80:128-n8:16:32:64-S128"
target triple = "x86_64-pc-linux-gnu"

%struct.RBasic = type { i64, i64 }
%struct.rb_execarg = type { %union.anon.13, i64, i64, i64, i64, i16, ptr, ptr, i32, i64, i32, i32, i32, i32, i64, i64, i64, i64, i64, i64, i64 }
%union.anon.13 = type { %struct.anon.15 }
%struct.anon.15 = type { i64, i64, i64, i64 }
%struct.RArray = type { %struct.RBasic, %union.anon.30 }
%union.anon.30 = type { %struct.anon.31 }
%struct.anon.31 = type { i64, %union.anon.32, ptr }
%union.anon.32 = type { i64 }

@rb_eArgError = external global i64, align 8
@.str.198 = private unnamed_addr constant [22 x i8] c"fd %d specified twice\00", align 1

; Function Attrs: inlinehint nounwind sspstrong willreturn memory(read) uwtable
define internal i64 @RB_FL_TEST_RAW(i64 noundef %0, i64 noundef %1) #5 {
  %3 = alloca i64, align 8
  %4 = alloca i64, align 8
  store i64 %0, ptr %3, align 8, !tbaa !35
  store i64 %1, ptr %4, align 8, !tbaa !35
  %5 = load i64, ptr %3, align 8, !tbaa !35
  %6 = inttoptr i64 %5 to ptr
  %7 = getelementptr inbounds nuw %struct.RBasic, ptr %6, i32 0, i32 0
  %8 = load i64, ptr %7, align 8, !tbaa !215
  %9 = load i64, ptr %4, align 8, !tbaa !35
  %10 = and i64 %8, %9
  ret i64 %10
}

; Function Attrs: inlinehint nounwind sspstrong willreturn memory(read) uwtable
define internal ptr @rb_array_const_ptr(i64 noundef %0) #5 {
  %2 = alloca ptr, align 8
  %3 = alloca i64, align 8
  store i64 %0, ptr %3, align 8, !tbaa !35
  %4 = load i64, ptr %3, align 8, !tbaa !35
  %5 = call zeroext i1 @RB_FL_ANY_RAW(i64 noundef %4, i64 noundef 8192) #29
  br i1 %5, label %6, label %11

6:                                                ; preds = %1
  %7 = load i64, ptr %3, align 8, !tbaa !35
  %8 = inttoptr i64 %7 to ptr
  %9 = getelementptr inbounds nuw %struct.RArray, ptr %8, i32 0, i32 1
  %10 = getelementptr inbounds [1 x i64], ptr %9, i64 0, i64 0
  store ptr %10, ptr %2, align 8
  br label %17

11:                                               ; preds = %1
  %12 = load i64, ptr %3, align 8, !tbaa !35
  %13 = inttoptr i64 %12 to ptr
  %14 = getelementptr inbounds nuw %struct.RArray, ptr %13, i32 0, i32 1
  %15 = getelementptr inbounds nuw %struct.anon.31, ptr %14, i32 0, i32 2
  %16 = load ptr, ptr %15, align 8, !tbaa !66
  store ptr %16, ptr %2, align 8
  br label %17

17:                                               ; preds = %11, %6
  %18 = load ptr, ptr %2, align 8
  ret ptr %18
}

; Function Attrs: inlinehint nounwind sspstrong willreturn memory(read) uwtable
define internal i64 @RARRAY_EMBED_LEN(i64 noundef %0) #5 {
  %2 = alloca i64, align 8
  %3 = alloca i64, align 8
  store i64 %0, ptr %2, align 8, !tbaa !35
  call void @llvm.lifetime.start.p0(i64 8, ptr %3) #27
  %4 = load i64, ptr %2, align 8, !tbaa !35
  %5 = inttoptr i64 %4 to ptr
  %6 = getelementptr inbounds nuw %struct.RBasic, ptr %5, i32 0, i32 0
  %7 = load i64, ptr %6, align 8, !tbaa !215
  store i64 %7, ptr %3, align 8, !tbaa !35
  %8 = load i64, ptr %3, align 8, !tbaa !35
  %9 = and i64 %8, 4161536
  store i64 %9, ptr %3, align 8, !tbaa !35
  %10 = load i64, ptr %3, align 8, !tbaa !35
  %11 = lshr i64 %10, 15
  store i64 %11, ptr %3, align 8, !tbaa !35
  %12 = load i64, ptr %3, align 8, !tbaa !35
  call void @llvm.lifetime.end.p0(i64 8, ptr %3) #27
  ret i64 %12
}

; Function Attrs: inlinehint nounwind sspstrong willreturn memory(read) uwtable
define internal zeroext i1 @RB_FL_ANY_RAW(i64 noundef %0, i64 noundef %1) #5 {
  %3 = alloca i64, align 8
  %4 = alloca i64, align 8
  store i64 %0, ptr %3, align 8, !tbaa !35
  store i64 %1, ptr %4, align 8, !tbaa !35
  %5 = load i64, ptr %3, align 8, !tbaa !35
  %6 = load i64, ptr %4, align 8, !tbaa !35
  %7 = call i64 @RB_FL_TEST_RAW(i64 noundef %5, i64 noundef %6) #29
  %8 = icmp ne i64 %7, 0
  ret i1 %8
}

; Function Attrs: inlinehint nounwind sspstrong willreturn memory(none) uwtable
define internal zeroext i1 @RB_TEST(i64 noundef %0) #4 {
  %2 = alloca i64, align 8
  store i64 %0, ptr %2, align 8, !tbaa !35
  %3 = load i64, ptr %2, align 8, !tbaa !35
  %4 = and i64 %3, -5
  %5 = icmp ne i64 %4, 0
  ret i1 %5
}

; Function Attrs: inlinehint nounwind sspstrong willreturn memory(none) uwtable
define internal i64 @RB_INT2FIX(i64 noundef %0) #4 {
  %2 = alloca i64, align 8
  %3 = alloca i64, align 8
  %4 = alloca i64, align 8
  %5 = alloca i64, align 8
  %6 = alloca i64, align 8
  %7 = alloca i64, align 8
  store i64 %0, ptr %2, align 8, !tbaa !35
  call void @llvm.lifetime.start.p0(i64 8, ptr %3) #27
  %8 = load i64, ptr %2, align 8, !tbaa !35
  store i64 %8, ptr %3, align 8, !tbaa !35
  call void @llvm.lifetime.start.p0(i64 8, ptr %4) #27
  %9 = load i64, ptr %3, align 8, !tbaa !35
  %10 = shl i64 %9, 1
  %11 = add i64 %10, 1
  store i64 %11, ptr %4, align 8, !tbaa !35
  call void @llvm.lifetime.start.p0(i64 8, ptr %5) #27
  %12 = load i64, ptr %4, align 8, !tbaa !35
  store i64 %12, ptr %5, align 8, !tbaa !35
  call void @llvm.lifetime.start.p0(i64 8, ptr %6) #27
  %13 = load i64, ptr %5, align 8, !tbaa !35
  store i64 %13, ptr %6, align 8, !tbaa !35
  call void @llvm.lifetime.start.p0(i64 8, ptr %7) #27
  %14 = load i64, ptr %6, align 8, !tbaa !35
  store i64 %14, ptr %7, align 8, !tbaa !35
  %15 = load i64, ptr %7, align 8, !tbaa !35
  call void @llvm.lifetime.end.p0(i64 8, ptr %7) #27
  call void @llvm.lifetime.end.p0(i64 8, ptr %6) #27
  call void @llvm.lifetime.end.p0(i64 8, ptr %5) #27
  call void @llvm.lifetime.end.p0(i64 8, ptr %4) #27
  call void @llvm.lifetime.end.p0(i64 8, ptr %3) #27
  ret i64 %15
}

; Function Attrs: inlinehint nounwind sspstrong uwtable
define internal i32 @RB_FIX2INT(i64 noundef %0) #1 {
  %2 = alloca i64, align 8
  %3 = alloca i64, align 8
  store i64 %0, ptr %2, align 8, !tbaa !35
  call void @llvm.lifetime.start.p0(i64 8, ptr %3) #27
  %4 = load i64, ptr %2, align 8, !tbaa !35
  %5 = call i64 @rb_fix2int(i64 noundef %4)
  store i64 %5, ptr %3, align 8, !tbaa !35
  %6 = load i64, ptr %3, align 8, !tbaa !35
  %7 = trunc i64 %6 to i32
  call void @llvm.lifetime.end.p0(i64 8, ptr %3) #27
  ret i32 %7
}

; Function Attrs: inlinehint nounwind sspstrong willreturn memory(read) uwtable
define internal i64 @RARRAY_AREF(i64 noundef %0, i64 noundef %1) #5 {
  %3 = alloca i64, align 8
  %4 = alloca i64, align 8
  %5 = alloca i64, align 8
  store i64 %0, ptr %3, align 8, !tbaa !35
  store i64 %1, ptr %4, align 8, !tbaa !35
  call void @llvm.lifetime.start.p0(i64 8, ptr %5) #27
  %6 = load i64, ptr %3, align 8, !tbaa !35
  %7 = call ptr @rb_array_const_ptr(i64 noundef %6) #29
  %8 = load i64, ptr %4, align 8, !tbaa !35
  %9 = getelementptr i64, ptr %7, i64 %8
  %10 = load i64, ptr %9, align 8, !tbaa !35
  store i64 %10, ptr %5, align 8, !tbaa !35
  %11 = load i64, ptr %5, align 8, !tbaa !35
  call void @llvm.lifetime.end.p0(i64 8, ptr %5) #27
  ret i64 %11
}

; Function Attrs: inlinehint nounwind sspstrong willreturn memory(read) uwtable
define internal i64 @rb_array_len(i64 noundef %0) #5 {
  %2 = alloca i64, align 8
  %3 = alloca i64, align 8
  store i64 %0, ptr %3, align 8, !tbaa !35
  %4 = load i64, ptr %3, align 8, !tbaa !35
  %5 = call zeroext i1 @RB_FL_ANY_RAW(i64 noundef %4, i64 noundef 8192) #29
  br i1 %5, label %6, label %9

6:                                                ; preds = %1
  %7 = load i64, ptr %3, align 8, !tbaa !35
  %8 = call i64 @RARRAY_EMBED_LEN(i64 noundef %7) #29
  store i64 %8, ptr %2, align 8
  br label %15

9:                                                ; preds = %1
  %10 = load i64, ptr %3, align 8, !tbaa !35
  %11 = inttoptr i64 %10 to ptr
  %12 = getelementptr inbounds nuw %struct.RArray, ptr %11, i32 0, i32 1
  %13 = getelementptr inbounds nuw %struct.anon.31, ptr %12, i32 0, i32 0
  %14 = load i64, ptr %13, align 8, !tbaa !66
  store i64 %14, ptr %2, align 8
  br label %15

15:                                               ; preds = %9, %6
  %16 = load i64, ptr %2, align 8
  ret i64 %16
}

; Function Attrs: nounwind sspstrong uwtable
define internal i32 @check_exec_fds_1(ptr noundef %0, i64 noundef %1, i32 noundef %2, i64 noundef %3) #0 {
  %5 = alloca ptr, align 8
  %6 = alloca i64, align 8
  %7 = alloca i32, align 4
  %8 = alloca i64, align 8
  %9 = alloca i64, align 8
  %10 = alloca i64, align 8
  %11 = alloca i32, align 4
  store ptr %0, ptr %5, align 8, !tbaa !68
  store i64 %1, ptr %6, align 8, !tbaa !35
  store i32 %2, ptr %7, align 4, !tbaa !34
  store i64 %3, ptr %8, align 8, !tbaa !35
  call void @llvm.lifetime.start.p0(i64 8, ptr %9) #27
  %12 = load i64, ptr %8, align 8, !tbaa !35
  %13 = icmp ne i64 %12, 0
  br i1 %13, label %14, label %102

14:                                               ; preds = %4
  store i64 0, ptr %9, align 8, !tbaa !35
  br label %15

15:                                               ; preds = %98, %14
  %16 = load i64, ptr %9, align 8, !tbaa !35
  %17 = load i64, ptr %8, align 8, !tbaa !35
  %18 = call i64 @rb_array_len(i64 noundef %17) #29
  %19 = icmp slt i64 %16, %18
  br i1 %19, label %20, label %101

20:                                               ; preds = %15
  call void @llvm.lifetime.start.p0(i64 8, ptr %10) #27
  %21 = load i64, ptr %8, align 8, !tbaa !35
  %22 = load i64, ptr %9, align 8, !tbaa !35
  %23 = call i64 @RARRAY_AREF(i64 noundef %21, i64 noundef %22) #29
  store i64 %23, ptr %10, align 8, !tbaa !35
  call void @llvm.lifetime.start.p0(i64 4, ptr %11) #27
  %24 = load i64, ptr %10, align 8, !tbaa !35
  %25 = call i64 @RARRAY_AREF(i64 noundef %24, i64 noundef 0) #29
  %26 = call i32 @RB_FIX2INT(i64 noundef %25)
  store i32 %26, ptr %11, align 4, !tbaa !34
  %27 = load i64, ptr %6, align 8, !tbaa !35
  %28 = load i32, ptr %11, align 4, !tbaa !34
  %29 = sext i32 %28 to i64
  %30 = call i64 @RB_INT2FIX(i64 noundef %29) #28
  %31 = call i64 @rb_hash_lookup(i64 noundef %27, i64 noundef %30)
  %32 = call zeroext i1 @RB_TEST(i64 noundef %31) #28
  br i1 %32, label %33, label %36

33:                                               ; preds = %20
  %34 = load i64, ptr @rb_eArgError, align 8, !tbaa !35
  %35 = load i32, ptr %11, align 4, !tbaa !34
  call void (i64, ptr, ...) @rb_raise(i64 noundef %34, ptr noundef @.str.198, i32 noundef %35) #30
  unreachable

36:                                               ; preds = %20
  %37 = load i64, ptr %8, align 8, !tbaa !35
  %38 = load ptr, ptr %5, align 8, !tbaa !68
  %39 = getelementptr inbounds nuw %struct.rb_execarg, ptr %38, i32 0, i32 14
  %40 = load i64, ptr %39, align 8, !tbaa !84
  %41 = icmp eq i64 %37, %40
  br i1 %41, label %42, label %48

42:                                               ; preds = %36
  %43 = load i64, ptr %6, align 8, !tbaa !35
  %44 = load i32, ptr %11, align 4, !tbaa !34
  %45 = sext i32 %44 to i64
  %46 = call i64 @RB_INT2FIX(i64 noundef %45) #28
  %47 = call i64 @rb_hash_aset(i64 noundef %43, i64 noundef %46, i64 noundef 20)
  br label %69

48:                                               ; preds = %36
  %49 = load i64, ptr %8, align 8, !tbaa !35
  %50 = load ptr, ptr %5, align 8, !tbaa !68
  %51 = getelementptr inbounds nuw %struct.rb_execarg, ptr %50, i32 0, i32 17
  %52 = load i64, ptr %51, align 8, !tbaa !85
  %53 = icmp eq i64 %49, %52
  br i1 %53, label %54, label %62

54:                                               ; preds = %48
  %55 = load i64, ptr %6, align 8, !tbaa !35
  %56 = load i32, ptr %11, align 4, !tbaa !34
  %57 = sext i32 %56 to i64
  %58 = call i64 @RB_INT2FIX(i64 noundef %57) #28
  %59 = load i64, ptr %10, align 8, !tbaa !35
  %60 = call i64 @RARRAY_AREF(i64 noundef %59, i64 noundef 1) #29
  %61 = call i64 @rb_hash_aset(i64 noundef %55, i64 noundef %58, i64 noundef %60)
  br label %68

62:                                               ; preds = %48
  %63 = load i64, ptr %6, align 8, !tbaa !35
  %64 = load i32, ptr %11, align 4, !tbaa !34
  %65 = sext i32 %64 to i64
  %66 = call i64 @RB_INT2FIX(i64 noundef %65) #28
  %67 = call i64 @rb_hash_aset(i64 noundef %63, i64 noundef %66, i64 noundef -1)
  br label %68

68:                                               ; preds = %62, %54
  br label %69

69:                                               ; preds = %68, %42
  %70 = load i32, ptr %7, align 4, !tbaa !34
  %71 = load i32, ptr %11, align 4, !tbaa !34
  %72 = icmp slt i32 %70, %71
  br i1 %72, label %73, label %75

73:                                               ; preds = %69
  %74 = load i32, ptr %11, align 4, !tbaa !34
  store i32 %74, ptr %7, align 4, !tbaa !34
  br label %75

75:                                               ; preds = %73, %69
  %76 = load i64, ptr %8, align 8, !tbaa !35
  %77 = load ptr, ptr %5, align 8, !tbaa !68
  %78 = getelementptr inbounds nuw %struct.rb_execarg, ptr %77, i32 0, i32 14
  %79 = load i64, ptr %78, align 8, !tbaa !84
  %80 = icmp eq i64 %76, %79
  br i1 %80, label %87, label %81

81:                                               ; preds = %75
  %82 = load i64, ptr %8, align 8, !tbaa !35
  %83 = load ptr, ptr %5, align 8, !tbaa !68
  %84 = getelementptr inbounds nuw %struct.rb_execarg, ptr %83, i32 0, i32 17
  %85 = load i64, ptr %84, align 8, !tbaa !85
  %86 = icmp eq i64 %82, %85
  br i1 %86, label %87, label %97

87:                                               ; preds = %81, %75
  %88 = load i64, ptr %10, align 8, !tbaa !35
  %89 = call i64 @RARRAY_AREF(i64 noundef %88, i64 noundef 1) #29
  %90 = call i32 @RB_FIX2INT(i64 noundef %89)
  store i32 %90, ptr %11, align 4, !tbaa !34
  %91 = load i32, ptr %7, align 4, !tbaa !34
  %92 = load i32, ptr %11, align 4, !tbaa !34
  %93 = icmp slt i32 %91, %92
  br i1 %93, label %94, label %96

94:                                               ; preds = %87
  %95 = load i32, ptr %11, align 4, !tbaa !34
  store i32 %95, ptr %7, align 4, !tbaa !34
  br label %96

96:                                               ; preds = %94, %87
  br label %97

97:                                               ; preds = %96, %81
  call void @llvm.lifetime.end.p0(i64 4, ptr %11) #27
  call void @llvm.lifetime.end.p0(i64 8, ptr %10) #27
  br label %98

98:                                               ; preds = %97
  %99 = load i64, ptr %9, align 8, !tbaa !35
  %100 = add i64 %99, 1
  store i64 %100, ptr %9, align 8, !tbaa !35
  br label %15, !llvm.loop !273

101:                                              ; preds = %15
  br label %102

102:                                              ; preds = %101, %4
  %103 = load i32, ptr %7, align 4, !tbaa !34
  call void @llvm.lifetime.end.p0(i64 8, ptr %9) #27
  ret i32 %103
}