; Function Attrs: nounwind sspstrong uwtable
define internal fastcc range(i32 -1, -2147483648) i32 @check_exec_fds_1(ptr noundef readonly captures(none) %0, i64 noundef %1, i32 noundef range(i32 -1, -2147483648) %2, i64 noundef %3) unnamed_addr #1 {
  %.not = icmp eq i64 %3, 0
  br i1 %.not, label %.loopexit, label %.preheader

.preheader:                                       ; preds = %4
  %5 = inttoptr i64 %3 to ptr
  %6 = getelementptr inbounds nuw i8, ptr %5, i64 16
  %7 = getelementptr inbounds nuw i8, ptr %5, i64 32
  %8 = getelementptr inbounds nuw i8, ptr %0, i64 120
  %9 = getelementptr inbounds nuw i8, ptr %0, i64 144
  br label %10

10:                                               ; preds = %.preheader, %74
  %.032 = phi i64 [ %75, %74 ], [ 0, %.preheader ]
  %.1 = phi i32 [ %.3, %74 ], [ %2, %.preheader ]
  %11 = load i64, ptr %5, align 8, !tbaa !69
  %12 = and i64 %11, 8192
  %.not.i = icmp eq i64 %12, 0
  br i1 %.not.i, label %rb_array_len.exit, label %rb_array_len.exit.thread

rb_array_len.exit:                                ; preds = %10
  %13 = load i64, ptr %6, align 8, !tbaa !67
  %14 = icmp slt i64 %.032, %13
  br i1 %14, label %18, label %.loopexit

rb_array_len.exit.thread:                         ; preds = %10
  %15 = lshr i64 %11, 15
  %16 = and i64 %15, 127
  %17 = icmp samesign ult i64 %.032, %16
  br i1 %17, label %RARRAY_AREF.exit, label %.loopexit

18:                                               ; preds = %rb_array_len.exit
  %19 = load ptr, ptr %7, align 8, !tbaa !67
  br label %RARRAY_AREF.exit

RARRAY_AREF.exit:                                 ; preds = %rb_array_len.exit.thread, %18
  %.0.i.i = phi ptr [ %19, %18 ], [ %6, %rb_array_len.exit.thread ]
  %20 = getelementptr i64, ptr %.0.i.i, i64 %.032
  %21 = load i64, ptr %20, align 8, !tbaa !43
  %22 = inttoptr i64 %21 to ptr
  %23 = load i64, ptr %22, align 8, !tbaa !69
  %24 = and i64 %23, 8192
  %.not.i.i37 = icmp eq i64 %24, 0
  br i1 %.not.i.i37, label %27, label %25

25:                                               ; preds = %RARRAY_AREF.exit
  %26 = getelementptr inbounds nuw i8, ptr %22, i64 16
  br label %RARRAY_AREF.exit39

27:                                               ; preds = %RARRAY_AREF.exit
  %28 = getelementptr inbounds nuw i8, ptr %22, i64 32
  %29 = load ptr, ptr %28, align 8, !tbaa !67
  br label %RARRAY_AREF.exit39

RARRAY_AREF.exit39:                               ; preds = %25, %27
  %.0.i.i38 = phi ptr [ %26, %25 ], [ %29, %27 ]
  %30 = load i64, ptr %.0.i.i38, align 8, !tbaa !43
  %31 = tail call i64 @rb_fix2int(i64 noundef %30) #27
  %32 = trunc i64 %31 to i32
  %sext = shl i64 %31, 32
  %33 = ashr exact i64 %sext, 31
  %34 = or disjoint i64 %33, 1
  %35 = tail call i64 @rb_hash_lookup(i64 noundef %1, i64 noundef %34) #27
  %36 = and i64 %35, -5
  %.not47 = icmp eq i64 %36, 0
  br i1 %.not47, label %39, label %37

37:                                               ; preds = %RARRAY_AREF.exit39
  %38 = load i64, ptr @rb_eArgError, align 8, !tbaa !43
  tail call void (i64, ptr, ...) @rb_raise(i64 noundef %38, ptr noundef nonnull @.str.198, i32 noundef %32) #29
  unreachable

39:                                               ; preds = %RARRAY_AREF.exit39
  %40 = load i64, ptr %8, align 8, !tbaa !89
  %41 = icmp eq i64 %3, %40
  br i1 %41, label %55, label %42

42:                                               ; preds = %39
  %43 = load i64, ptr %9, align 8, !tbaa !90
  %44 = icmp eq i64 %3, %43
  br i1 %44, label %45, label %55

45:                                               ; preds = %42
  %46 = load i64, ptr %22, align 8, !tbaa !69
  %47 = and i64 %46, 8192
  %.not.i.i40 = icmp eq i64 %47, 0
  br i1 %.not.i.i40, label %50, label %48

48:                                               ; preds = %45
  %49 = getelementptr inbounds nuw i8, ptr %22, i64 16
  br label %RARRAY_AREF.exit42

50:                                               ; preds = %45
  %51 = getelementptr inbounds nuw i8, ptr %22, i64 32
  %52 = load ptr, ptr %51, align 8, !tbaa !67
  br label %RARRAY_AREF.exit42

RARRAY_AREF.exit42:                               ; preds = %48, %50
  %.0.i.i41 = phi ptr [ %49, %48 ], [ %52, %50 ]
  %53 = getelementptr i8, ptr %.0.i.i41, i64 8
  %54 = load i64, ptr %53, align 8, !tbaa !43
  br label %55

55:                                               ; preds = %42, %39, %RARRAY_AREF.exit42
  %.sink = phi i64 [ %54, %RARRAY_AREF.exit42 ], [ 20, %39 ], [ -1, %42 ]
  %56 = tail call i64 @rb_hash_aset(i64 noundef %1, i64 noundef %34, i64 noundef %.sink) #27
  %spec.select = tail call i32 @llvm.smax.i32(i32 %.1, i32 %32)
  %57 = load i64, ptr %8, align 8, !tbaa !89
  %58 = icmp eq i64 %3, %57
  br i1 %58, label %62, label %59

59:                                               ; preds = %55
  %60 = load i64, ptr %9, align 8, !tbaa !90
  %61 = icmp eq i64 %3, %60
  br i1 %61, label %62, label %74

62:                                               ; preds = %59, %55
  %63 = load i64, ptr %22, align 8, !tbaa !69
  %64 = and i64 %63, 8192
  %.not.i.i43 = icmp eq i64 %64, 0
  br i1 %.not.i.i43, label %67, label %65

65:                                               ; preds = %62
  %66 = getelementptr inbounds nuw i8, ptr %22, i64 16
  br label %RARRAY_AREF.exit45

67:                                               ; preds = %62
  %68 = getelementptr inbounds nuw i8, ptr %22, i64 32
  %69 = load ptr, ptr %68, align 8, !tbaa !67
  br label %RARRAY_AREF.exit45

RARRAY_AREF.exit45:                               ; preds = %65, %67
  %.0.i.i44 = phi ptr [ %66, %65 ], [ %69, %67 ]
  %70 = getelementptr i8, ptr %.0.i.i44, i64 8
  %71 = load i64, ptr %70, align 8, !tbaa !43
  %72 = tail call i64 @rb_fix2int(i64 noundef %71) #27
  %73 = trunc i64 %72 to i32
  %spec.select36 = tail call i32 @llvm.smax.i32(i32 %spec.select, i32 %73)
  br label %74

74:                                               ; preds = %RARRAY_AREF.exit45, %59
  %.3 = phi i32 [ %spec.select, %59 ], [ %spec.select36, %RARRAY_AREF.exit45 ]
  %75 = add nuw nsw i64 %.032, 1
  br label %10, !llvm.loop !312

.loopexit:                                        ; preds = %rb_array_len.exit.thread, %rb_array_len.exit, %4
  %.0 = phi i32 [ %2, %4 ], [ %.1, %rb_array_len.exit ], [ %.1, %rb_array_len.exit.thread ]
  ret i32 %.0
}